target datalayout = "e-m:e-p270:32:32-p271:32:32-p272:64:64-i64:64-i128:128-f80:128-n8:16:32:64-S128"
target triple = "x86_64-pc-linux-gnu"

%struct.lv_ll_t = type { i32, ptr, ptr }
%struct._lv_ime_pinyin_t = type { %struct._lv_obj_t, ptr, ptr, ptr, %struct.lv_ll_t, ptr, [16 x i8], [8 x i8], i16, i16, i16, i16, i16, i16, [26 x i16], [26 x i16], i32 }
%struct._lv_obj_t = type { ptr, ptr, ptr, ptr, ptr, %struct.lv_area_t, i32, i16, i16 }
%struct.lv_area_t = type { i32, i32, i32, i32 }

; Function Attrs: nounwind uwtable
define internal void @lv_ime_pinyin_cand_panel_event(ptr noundef %0) #0 {
  %2 = alloca ptr, align 8
  %3 = alloca i32, align 4
  %4 = alloca ptr, align 8
  %5 = alloca ptr, align 8
  %6 = alloca ptr, align 8
  %7 = alloca ptr, align 8
  %8 = alloca i32, align 4
  %9 = alloca i32, align 4
  %10 = alloca ptr, align 8
  %11 = alloca i16, align 2
  store ptr %0, ptr %2, align 8, !tbaa !35
  call void @llvm.lifetime.start.p0(i64 4, ptr %3) #6
  %12 = load ptr, ptr %2, align 8, !tbaa !35
  %13 = call i32 @lv_event_get_code(ptr noundef %12)
  store i32 %13, ptr %3, align 4, !tbaa !37
  call void @llvm.lifetime.start.p0(i64 8, ptr %4) #6
  %14 = load ptr, ptr %2, align 8, !tbaa !35
  %15 = call ptr @lv_event_get_current_target(ptr noundef %14)
  store ptr %15, ptr %4, align 8, !tbaa !8
  call void @llvm.lifetime.start.p0(i64 8, ptr %5) #6
  %16 = load ptr, ptr %2, align 8, !tbaa !35
  %17 = call ptr @lv_event_get_user_data(ptr noundef %16)
  store ptr %17, ptr %5, align 8, !tbaa !8
  call void @llvm.lifetime.start.p0(i64 8, ptr %6) #6
  %18 = load ptr, ptr %5, align 8, !tbaa !8
  store ptr %18, ptr %6, align 8, !tbaa !10
  %19 = load i32, ptr %3, align 4, !tbaa !37
  %20 = icmp eq i32 %19, 35
  br i1 %20, label %21, label %72

21:                                               ; preds = %1
  call void @llvm.lifetime.start.p0(i64 8, ptr %7) #6
  %22 = load ptr, ptr %6, align 8, !tbaa !10
  %23 = getelementptr inbounds nuw %struct._lv_ime_pinyin_t, ptr %22, i32 0, i32 1
  %24 = load ptr, ptr %23, align 8, !tbaa !34
  %25 = call ptr @lv_keyboard_get_textarea(ptr noundef %24)
  store ptr %25, ptr %7, align 8, !tbaa !8
  %26 = load ptr, ptr %7, align 8, !tbaa !8
  %27 = icmp eq ptr %26, null
  br i1 %27, label %28, label %29

28:                                               ; preds = %21
  store i32 1, ptr %8, align 4
  br label %69

29:                                               ; preds = %21
  call void @llvm.lifetime.start.p0(i64 4, ptr %9) #6
  %30 = load ptr, ptr %4, align 8, !tbaa !8
  %31 = call i32 @lv_buttonmatrix_get_selected_button(ptr noundef %30)
  store i32 %31, ptr %9, align 4, !tbaa !37
  %32 = load i32, ptr %9, align 4, !tbaa !37
  %33 = icmp eq i32 %32, 65535
  br i1 %33, label %34, label %35

34:                                               ; preds = %29
  store i32 1, ptr %8, align 4
  br label %68

35:                                               ; preds = %29
  %36 = load i32, ptr %9, align 4, !tbaa !37
  %37 = icmp eq i32 %36, 0
  br i1 %37, label %38, label %40

38:                                               ; preds = %35
  %39 = load ptr, ptr %5, align 8, !tbaa !8
  call void @pinyin_page_proc(ptr noundef %39, i16 noundef zeroext 0)
  store i32 1, ptr %8, align 4
  br label %68

40:                                               ; preds = %35
  %41 = load i32, ptr %9, align 4, !tbaa !37
  %42 = icmp eq i32 %41, 7
  br i1 %42, label %43, label %45

43:                                               ; preds = %40
  %44 = load ptr, ptr %5, align 8, !tbaa !8
  call void @pinyin_page_proc(ptr noundef %44, i16 noundef zeroext 1)
  store i32 1, ptr %8, align 4
  br label %68

45:                                               ; preds = %40
  br label %46

46:                                               ; preds = %45
  br label %47

47:                                               ; preds = %46
  call void @llvm.lifetime.start.p0(i64 8, ptr %10) #6
  %48 = load ptr, ptr %4, align 8, !tbaa !8
  %49 = load i32, ptr %9, align 4, !tbaa !37
  %50 = call ptr @lv_buttonmatrix_get_button_text(ptr noundef %48, i32 noundef %49)
  store ptr %50, ptr %10, align 8, !tbaa !14
  call void @llvm.lifetime.start.p0(i64 2, ptr %11) #6
  store i16 0, ptr %11, align 2, !tbaa !12
  store i16 0, ptr %11, align 2, !tbaa !12
  br label %51

51:                                               ; preds = %61, %47
  %52 = load i16, ptr %11, align 2, !tbaa !12
  %53 = zext i16 %52 to i32
  %54 = load ptr, ptr %6, align 8, !tbaa !10
  %55 = getelementptr inbounds nuw %struct._lv_ime_pinyin_t, ptr %54, i32 0, i32 11
  %56 = load i16, ptr %55, align 2, !tbaa !28
  %57 = zext i16 %56 to i32
  %58 = icmp slt i32 %53, %57
  br i1 %58, label %59, label %64

59:                                               ; preds = %51
  %60 = load ptr, ptr %7, align 8, !tbaa !8
  call void @lv_textarea_delete_char(ptr noundef %60)
  br label %61

61:                                               ; preds = %59
  %62 = load i16, ptr %11, align 2, !tbaa !12
  %63 = add i16 %62, 1
  store i16 %63, ptr %11, align 2, !tbaa !12
  br label %51, !llvm.loop !49

64:                                               ; preds = %51
  %65 = load ptr, ptr %7, align 8, !tbaa !8
  %66 = load ptr, ptr %10, align 8, !tbaa !14
  call void @lv_textarea_add_text(ptr noundef %65, ptr noundef %66)
  %67 = load ptr, ptr %5, align 8, !tbaa !8
  call void @pinyin_ime_clear_data(ptr noundef %67)
  call void @llvm.lifetime.end.p0(i64 2, ptr %11) #6
  call void @llvm.lifetime.end.p0(i64 8, ptr %10) #6
  store i32 0, ptr %8, align 4
  br label %68

68:                                               ; preds = %64, %43, %38, %34
  call void @llvm.lifetime.end.p0(i64 4, ptr %9) #6
  br label %69

69:                                               ; preds = %68, %28
  call void @llvm.lifetime.end.p0(i64 8, ptr %7) #6
  %70 = load i32, ptr %8, align 4
  switch i32 %70, label %73 [
    i32 0, label %71
  ]

71:                                               ; preds = %69
  br label %72

72:                                               ; preds = %71, %1
  store i32 0, ptr %8, align 4
  br label %73

73:                                               ; preds = %72, %69
  call void @llvm.lifetime.end.p0(i64 8, ptr %6) #6
  call void @llvm.lifetime.end.p0(i64 8, ptr %5) #6
  call void @llvm.lifetime.end.p0(i64 8, ptr %4) #6
  call void @llvm.lifetime.end.p0(i64 4, ptr %3) #6
  %74 = load i32, ptr %8, align 4
  switch i32 %74, label %76 [
    i32 0, label %75
    i32 1, label %75
  ]

75:                                               ; preds = %73, %73
  ret void

76:                                               ; preds = %73
  unreachable
}