; Function Attrs: nounwind uwtable
define internal void @lv_ime_pinyin_cand_panel_event(ptr noundef %0) #0 {
  %2 = tail call i32 @lv_event_get_code(ptr noundef %0) #6
  %3 = tail call ptr @lv_event_get_current_target(ptr noundef %0) #6
  %4 = tail call ptr @lv_event_get_user_data(ptr noundef %0) #6
  %5 = icmp eq i32 %2, 35
  br i1 %5, label %6, label %.critedge

6:                                                ; preds = %1
  %7 = getelementptr inbounds nuw i8, ptr %4, i64 64
  %8 = load ptr, ptr %7, align 8, !tbaa !36
  %9 = tail call ptr @lv_keyboard_get_textarea(ptr noundef %8) #6
  %10 = icmp eq ptr %9, null
  br i1 %10, label %.critedge, label %11

11:                                               ; preds = %6
  %12 = tail call i32 @lv_buttonmatrix_get_selected_button(ptr noundef %3) #6
  switch i32 %12, label %15 [
    i32 65535, label %.critedge
    i32 0, label %13
    i32 7, label %14
  ]

13:                                               ; preds = %11
  tail call fastcc void @pinyin_page_proc(ptr noundef nonnull %4, i16 noundef zeroext 0)
  br label %.critedge

14:                                               ; preds = %11
  tail call fastcc void @pinyin_page_proc(ptr noundef nonnull %4, i16 noundef zeroext 1)
  br label %.critedge

15:                                               ; preds = %11
  %16 = tail call ptr @lv_buttonmatrix_get_button_text(ptr noundef %3, i32 noundef %12) #6
  %17 = getelementptr inbounds nuw i8, ptr %4, i64 150
  %18 = load i16, ptr %17, align 2, !tbaa !23
  %.not = icmp eq i16 %18, 0
  br i1 %.not, label %._crit_edge, label %.lr.ph

.lr.ph:                                           ; preds = %15, %.lr.ph
  %.025 = phi i16 [ %19, %.lr.ph ], [ 0, %15 ]
  tail call void @lv_textarea_delete_char(ptr noundef nonnull %9) #6
  %19 = add nuw i16 %.025, 1
  %20 = load i16, ptr %17, align 2, !tbaa !23
  %21 = icmp ult i16 %19, %20
  br i1 %21, label %.lr.ph, label %._crit_edge, !llvm.loop !40

._crit_edge:                                      ; preds = %.lr.ph, %15
  tail call void @lv_textarea_add_text(ptr noundef nonnull %9, ptr noundef %16) #6
  tail call fastcc void @pinyin_ime_clear_data(ptr noundef nonnull %4)
  br label %.critedge

.critedge:                                        ; preds = %6, %13, %14, %11, %1, %._crit_edge
  ret void
}